target datalayout = "e-m:e-p270:32:32-p271:32:32-p272:64:64-i64:64-i128:128-f80:128-n8:16:32:64-S128"
target triple = "x86_64-pc-linux-gnu"

%struct.evp_pkey_st = type { i32, i32, ptr, ptr, ptr, %union.legacy_pkey_st, %union.legacy_pkey_st, %struct.CRYPTO_REF_COUNT, ptr, ptr, i32, i8, %struct.crypto_ex_data_st, ptr, ptr, i64, ptr, i64, %struct.anon }
%union.legacy_pkey_st = type { ptr }
%struct.CRYPTO_REF_COUNT = type { i32 }
%struct.crypto_ex_data_st = type { ptr, ptr }
%struct.anon = type { i32, i32, i32 }
%struct.evp_pkey_asn1_method_st = type { i32, i32, i64, ptr, ptr, ptr, ptr, ptr, ptr, ptr, ptr, ptr, ptr, ptr, ptr, ptr, ptr, ptr, ptr, ptr, ptr, ptr, ptr, ptr, ptr, ptr, ptr, ptr, ptr, ptr, ptr, ptr, ptr, ptr, ptr, ptr, ptr, ptr, ptr, ptr, ptr }
%struct.raw_key_details_st = type { ptr, ptr, i32 }

@.str = private unnamed_addr constant [30 x i8] c"../openssl/crypto/evp/p_lib.c\00", align 1
@__func__.EVP_PKEY_get_raw_private_key = private unnamed_addr constant [29 x i8] c"EVP_PKEY_get_raw_private_key\00", align 1

; Function Attrs: nounwind uwtable
define i32 @EVP_PKEY_get_raw_private_key(ptr noundef %0, ptr noundef %1, ptr noundef %2) #0 {
  %4 = alloca i32, align 4
  %5 = alloca ptr, align 8
  %6 = alloca ptr, align 8
  %7 = alloca ptr, align 8
  %8 = alloca %struct.raw_key_details_st, align 8
  store ptr %0, ptr %5, align 8, !tbaa !3
  store ptr %1, ptr %6, align 8, !tbaa !39
  store ptr %2, ptr %7, align 8, !tbaa !74
  %9 = load ptr, ptr %5, align 8, !tbaa !3
  %10 = getelementptr inbounds nuw %struct.evp_pkey_st, ptr %9, i32 0, i32 13
  %11 = load ptr, ptr %10, align 8, !tbaa !32
  %12 = icmp ne ptr %11, null
  br i1 %12, label %13, label %26

13:                                               ; preds = %3
  call void @llvm.lifetime.start.p0(i64 24, ptr %8) #8
  %14 = load ptr, ptr %6, align 8, !tbaa !39
  %15 = icmp eq ptr %14, null
  br i1 %15, label %16, label %17

16:                                               ; preds = %13
  br label %18

17:                                               ; preds = %13
  br label %18

18:                                               ; preds = %17, %16
  %19 = phi ptr [ null, %16 ], [ %6, %17 ]
  %20 = getelementptr inbounds nuw %struct.raw_key_details_st, ptr %8, i32 0, i32 0
  store ptr %19, ptr %20, align 8, !tbaa !76
  %21 = load ptr, ptr %7, align 8, !tbaa !74
  %22 = getelementptr inbounds nuw %struct.raw_key_details_st, ptr %8, i32 0, i32 1
  store ptr %21, ptr %22, align 8, !tbaa !79
  %23 = getelementptr inbounds nuw %struct.raw_key_details_st, ptr %8, i32 0, i32 2
  store i32 1, ptr %23, align 8, !tbaa !80
  %24 = load ptr, ptr %5, align 8, !tbaa !3
  %25 = call i32 @evp_keymgmt_util_export(ptr noundef %24, i32 noundef 1, ptr noundef @get_raw_key_details, ptr noundef %8)
  store i32 %25, ptr %4, align 4
  call void @llvm.lifetime.end.p0(i64 24, ptr %8) #8
  br label %53

26:                                               ; preds = %3
  %27 = load ptr, ptr %5, align 8, !tbaa !3
  %28 = getelementptr inbounds nuw %struct.evp_pkey_st, ptr %27, i32 0, i32 2
  %29 = load ptr, ptr %28, align 8, !tbaa !23
  %30 = icmp eq ptr %29, null
  br i1 %30, label %31, label %32

31:                                               ; preds = %26
  call void @ERR_new()
  call void @ERR_set_debug(ptr noundef @.str, i32 noundef 603, ptr noundef @__func__.EVP_PKEY_get_raw_private_key)
  call void (i32, i32, ptr, ...) @ERR_set_error(i32 noundef 6, i32 noundef 150, ptr noundef null)
  store i32 0, ptr %4, align 4
  br label %53

32:                                               ; preds = %26
  %33 = load ptr, ptr %5, align 8, !tbaa !3
  %34 = getelementptr inbounds nuw %struct.evp_pkey_st, ptr %33, i32 0, i32 2
  %35 = load ptr, ptr %34, align 8, !tbaa !23
  %36 = getelementptr inbounds nuw %struct.evp_pkey_asn1_method_st, ptr %35, i32 0, i32 34
  %37 = load ptr, ptr %36, align 8, !tbaa !81
  %38 = icmp eq ptr %37, null
  br i1 %38, label %39, label %40

39:                                               ; preds = %32
  call void @ERR_new()
  call void @ERR_set_debug(ptr noundef @.str, i32 noundef 608, ptr noundef @__func__.EVP_PKEY_get_raw_private_key)
  call void (i32, i32, ptr, ...) @ERR_set_error(i32 noundef 6, i32 noundef 150, ptr noundef null)
  store i32 0, ptr %4, align 4
  br label %53

40:                                               ; preds = %32
  %41 = load ptr, ptr %5, align 8, !tbaa !3
  %42 = getelementptr inbounds nuw %struct.evp_pkey_st, ptr %41, i32 0, i32 2
  %43 = load ptr, ptr %42, align 8, !tbaa !23
  %44 = getelementptr inbounds nuw %struct.evp_pkey_asn1_method_st, ptr %43, i32 0, i32 34
  %45 = load ptr, ptr %44, align 8, !tbaa !81
  %46 = load ptr, ptr %5, align 8, !tbaa !3
  %47 = load ptr, ptr %6, align 8, !tbaa !39
  %48 = load ptr, ptr %7, align 8, !tbaa !74
  %49 = call i32 %45(ptr noundef %46, ptr noundef %47, ptr noundef %48)
  %50 = icmp ne i32 %49, 0
  br i1 %50, label %52, label %51

51:                                               ; preds = %40
  call void @ERR_new()
  call void @ERR_set_debug(ptr noundef @.str, i32 noundef 613, ptr noundef @__func__.EVP_PKEY_get_raw_private_key)
  call void (i32, i32, ptr, ...) @ERR_set_error(i32 noundef 6, i32 noundef 182, ptr noundef null)
  store i32 0, ptr %4, align 4
  br label %53

52:                                               ; preds = %40
  store i32 1, ptr %4, align 4
  br label %53

53:                                               ; preds = %52, %51, %39, %31, %18
  %54 = load i32, ptr %4, align 4
  ret i32 %54
}