; Function Attrs: nounwind uwtable
define i32 @EVP_PKEY_get_raw_private_key(ptr noundef %0, ptr noundef %1, ptr noundef %2) local_unnamed_addr #0 {
  %4 = alloca ptr, align 8
  %5 = alloca %struct.raw_key_details_st, align 8
  store ptr %1, ptr %4, align 8, !tbaa !47
  %6 = getelementptr inbounds nuw i8, ptr %0, i64 96
  %7 = load ptr, ptr %6, align 8, !tbaa !30
  %.not = icmp eq ptr %7, null
  br i1 %.not, label %13, label %8

8:                                                ; preds = %3
  call void @llvm.lifetime.start.p0(i64 24, ptr nonnull %5) #12
  %9 = icmp eq ptr %1, null
  %. = select i1 %9, ptr null, ptr %4
  store ptr %., ptr %5, align 8, !tbaa !64
  %10 = getelementptr inbounds nuw i8, ptr %5, i64 8
  store ptr %2, ptr %10, align 8, !tbaa !68
  %11 = getelementptr inbounds nuw i8, ptr %5, i64 16
  store i32 1, ptr %11, align 8, !tbaa !69
  %12 = call i32 @evp_keymgmt_util_export(ptr noundef nonnull %0, i32 noundef 1, ptr noundef nonnull @get_raw_key_details, ptr noundef nonnull %5) #12
  call void @llvm.lifetime.end.p0(i64 24, ptr nonnull %5) #12
  br label %26

13:                                               ; preds = %3
  %14 = getelementptr inbounds nuw i8, ptr %0, i64 8
  %15 = load ptr, ptr %14, align 8, !tbaa !20
  %16 = icmp eq ptr %15, null
  br i1 %16, label %17, label %18

17:                                               ; preds = %13
  tail call void @ERR_new() #12
  tail call void @ERR_set_debug(ptr noundef nonnull @.str, i32 noundef 603, ptr noundef nonnull @__func__.EVP_PKEY_get_raw_private_key) #12
  tail call void (i32, i32, ptr, ...) @ERR_set_error(i32 noundef 6, i32 noundef 150, ptr noundef null) #12
  br label %26

18:                                               ; preds = %13
  %19 = getelementptr inbounds nuw i8, ptr %15, i64 264
  %20 = load ptr, ptr %19, align 8, !tbaa !70
  %21 = icmp eq ptr %20, null
  br i1 %21, label %22, label %23

22:                                               ; preds = %18
  tail call void @ERR_new() #12
  tail call void @ERR_set_debug(ptr noundef nonnull @.str, i32 noundef 608, ptr noundef nonnull @__func__.EVP_PKEY_get_raw_private_key) #12
  tail call void (i32, i32, ptr, ...) @ERR_set_error(i32 noundef 6, i32 noundef 150, ptr noundef null) #12
  br label %26

23:                                               ; preds = %18
  %24 = tail call i32 %20(ptr noundef nonnull %0, ptr noundef %1, ptr noundef %2) #12
  %.not10 = icmp eq i32 %24, 0
  br i1 %.not10, label %25, label %26

25:                                               ; preds = %23
  tail call void @ERR_new() #12
  tail call void @ERR_set_debug(ptr noundef nonnull @.str, i32 noundef 613, ptr noundef nonnull @__func__.EVP_PKEY_get_raw_private_key) #12
  tail call void (i32, i32, ptr, ...) @ERR_set_error(i32 noundef 6, i32 noundef 182, ptr noundef null) #12
  br label %26

26:                                               ; preds = %23, %25, %22, %17, %8
  %.0 = phi i32 [ %12, %8 ], [ 0, %17 ], [ 0, %22 ], [ 0, %25 ], [ 1, %23 ]
  ret i32 %.0
}